; Function Attrs: mustprogress uwtable
define void @ggml_backend_event_wait(ptr noundef %0, ptr noundef %1) local_unnamed_addr #0 {
  %3 = getelementptr inbounds nuw i8, ptr %0, i64 104
  %4 = load ptr, ptr %3, align 8, !tbaa !84
  %.not = icmp eq ptr %4, null
  br i1 %.not, label %5, label %6

5:                                                ; preds = %2
  tail call void (ptr, i32, ptr, ...) @ggml_abort(ptr noundef nonnull @.str, i32 noundef 441, ptr noundef nonnull @.str.1, ptr noundef nonnull @.str.16) #24
  unreachable

6:                                                ; preds = %2
  tail call void %4(ptr noundef nonnull %0, ptr noundef %1)
  ret void
}